target datalayout = "e-m:e-p270:32:32-p271:32:32-p272:64:64-i64:64-i128:128-f80:128-n8:16:32:64-S128"
target triple = "x86_64-pc-linux-gnu"

; Function Attrs: mustprogress nounwind uwtable
define noundef i32 @_Z6FactorddPA2_dd(double noundef %0, double noundef %1, ptr noundef %2, double noundef %3) #0 {
  %5 = alloca i32, align 4
  %6 = alloca double, align 8
  %7 = alloca double, align 8
  %8 = alloca ptr, align 8
  %9 = alloca double, align 8
  store double %0, ptr %6, align 8
  store double %1, ptr %7, align 8
  store ptr %2, ptr %8, align 8
  store double %3, ptr %9, align 8
  %10 = load double, ptr %6, align 8
  %11 = call double @llvm.fabs.f64(double %10)
  %12 = load double, ptr %9, align 8
  %13 = fcmp ole double %11, %12
  br i1 %13, label %14, label %15

14:                                               ; preds = %4
  store i32 0, ptr %5, align 4
  br label %26

15:                                               ; preds = %4
  %16 = load double, ptr %7, align 8
  %17 = fneg double %16
  %18 = load double, ptr %6, align 8
  %19 = fdiv double %17, %18
  %20 = load ptr, ptr %8, align 8
  %21 = getelementptr inbounds [2 x double], ptr %20, i64 0
  %22 = getelementptr inbounds [2 x double], ptr %21, i64 0, i64 0
  store double %19, ptr %22, align 8
  %23 = load ptr, ptr %8, align 8
  %24 = getelementptr inbounds [2 x double], ptr %23, i64 0
  %25 = getelementptr inbounds [2 x double], ptr %24, i64 0, i64 1
  store double 0.000000e+00, ptr %25, align 8
  store i32 1, ptr %5, align 4
  br label %26

26:                                               ; preds = %15, %14
  %27 = load i32, ptr %5, align 4
  ret i32 %27
}

; Function Attrs: mustprogress nounwind uwtable
define noundef i32 @_Z6FactordddPA2_dd(double noundef %0, double noundef %1, double noundef %2, ptr noundef %3, double noundef %4) #0 {
  %6 = alloca i32, align 4
  %7 = alloca double, align 8
  %8 = alloca double, align 8
  %9 = alloca double, align 8
  %10 = alloca ptr, align 8
  %11 = alloca double, align 8
  %12 = alloca double, align 8
  store double %0, ptr %7, align 8
  store double %1, ptr %8, align 8
  store double %2, ptr %9, align 8
  store ptr %3, ptr %10, align 8
  store double %4, ptr %11, align 8
  %13 = load double, ptr %7, align 8
  %14 = call double @llvm.fabs.f64(double %13)
  %15 = load double, ptr %11, align 8
  %16 = fcmp ole double %14, %15
  br i1 %16, label %17, label %23

17:                                               ; preds = %5
  %18 = load double, ptr %8, align 8
  %19 = load double, ptr %9, align 8
  %20 = load ptr, ptr %10, align 8
  %21 = load double, ptr %11, align 8
  %22 = call noundef i32 @_Z6FactorddPA2_dd(double noundef %18, double noundef %19, ptr noundef %20, double noundef %21)
  store i32 %22, ptr %6, align 4
  br label %89

23:                                               ; preds = %5
  %24 = load double, ptr %8, align 8
  %25 = load double, ptr %8, align 8
  %26 = load double, ptr %9, align 8
  %27 = fmul double 4.000000e+00, %26
  %28 = load double, ptr %7, align 8
  %29 = fmul double %27, %28
  %30 = fneg double %29
  %31 = call double @llvm.fmuladd.f64(double %24, double %25, double %30)
  store double %31, ptr %12, align 8
  %32 = load double, ptr %7, align 8
  %33 = fmul double 2.000000e+00, %32
  %34 = load double, ptr %8, align 8
  %35 = fdiv double %34, %33
  store double %35, ptr %8, align 8
  %36 = load double, ptr %12, align 8
  %37 = fcmp olt double %36, 0.000000e+00
  br i1 %37, label %38, label %62

38:                                               ; preds = %23
  %39 = load double, ptr %12, align 8
  %40 = fneg double %39
  %41 = call double @sqrt(double noundef %40) #6
  %42 = load double, ptr %7, align 8
  %43 = fmul double 2.000000e+00, %42
  %44 = fdiv double %41, %43
  store double %44, ptr %12, align 8
  %45 = load double, ptr %8, align 8
  %46 = fneg double %45
  %47 = load ptr, ptr %10, align 8
  %48 = getelementptr inbounds [2 x double], ptr %47, i64 1
  %49 = getelementptr inbounds [2 x double], ptr %48, i64 0, i64 0
  store double %46, ptr %49, align 8
  %50 = load ptr, ptr %10, align 8
  %51 = getelementptr inbounds [2 x double], ptr %50, i64 0
  %52 = getelementptr inbounds [2 x double], ptr %51, i64 0, i64 0
  store double %46, ptr %52, align 8
  %53 = load double, ptr %12, align 8
  %54 = fneg double %53
  %55 = load ptr, ptr %10, align 8
  %56 = getelementptr inbounds [2 x double], ptr %55, i64 0
  %57 = getelementptr inbounds [2 x double], ptr %56, i64 0, i64 1
  store double %54, ptr %57, align 8
  %58 = load double, ptr %12, align 8
  %59 = load ptr, ptr %10, align 8
  %60 = getelementptr inbounds [2 x double], ptr %59, i64 1
  %61 = getelementptr inbounds [2 x double], ptr %60, i64 0, i64 1
  store double %58, ptr %61, align 8
  br label %88

62:                                               ; preds = %23
  %63 = load double, ptr %12, align 8
  %64 = call double @sqrt(double noundef %63) #6
  %65 = load double, ptr %7, align 8
  %66 = fmul double 2.000000e+00, %65
  %67 = fdiv double %64, %66
  store double %67, ptr %12, align 8
  %68 = load ptr, ptr %10, align 8
  %69 = getelementptr inbounds [2 x double], ptr %68, i64 1
  %70 = getelementptr inbounds [2 x double], ptr %69, i64 0, i64 1
  store double 0.000000e+00, ptr %70, align 8
  %71 = load ptr, ptr %10, align 8
  %72 = getelementptr inbounds [2 x double], ptr %71, i64 0
  %73 = getelementptr inbounds [2 x double], ptr %72, i64 0, i64 1
  store double 0.000000e+00, ptr %73, align 8
  %74 = load double, ptr %8, align 8
  %75 = fneg double %74
  %76 = load double, ptr %12, align 8
  %77 = fsub double %75, %76
  %78 = load ptr, ptr %10, align 8
  %79 = getelementptr inbounds [2 x double], ptr %78, i64 0
  %80 = getelementptr inbounds [2 x double], ptr %79, i64 0, i64 0
  store double %77, ptr %80, align 8
  %81 = load double, ptr %8, align 8
  %82 = fneg double %81
  %83 = load double, ptr %12, align 8
  %84 = fadd double %82, %83
  %85 = load ptr, ptr %10, align 8
  %86 = getelementptr inbounds [2 x double], ptr %85, i64 1
  %87 = getelementptr inbounds [2 x double], ptr %86, i64 0, i64 0
  store double %84, ptr %87, align 8
  br label %88

88:                                               ; preds = %62, %38
  store i32 2, ptr %6, align 4
  br label %89

89:                                               ; preds = %88, %17
  %90 = load i32, ptr %6, align 4
  ret i32 %90
}

; Function Attrs: mustprogress nounwind uwtable
define noundef i32 @_Z6FactorddddPA2_dd(double noundef %0, double noundef %1, double noundef %2, double noundef %3, ptr noundef %4, double noundef %5) #0 {
  %7 = alloca i32, align 4
  %8 = alloca double, align 8
  %9 = alloca double, align 8
  %10 = alloca double, align 8
  %11 = alloca double, align 8
  %12 = alloca ptr, align 8
  %13 = alloca double, align 8
  %14 = alloca double, align 8
  %15 = alloca double, align 8
  %16 = alloca double, align 8
  %17 = alloca double, align 8
  %18 = alloca double, align 8
  %19 = alloca double, align 8
  %20 = alloca double, align 8
  %21 = alloca double, align 8
  %22 = alloca double, align 8
  %23 = alloca double, align 8
  %24 = alloca double, align 8
  %25 = alloca double, align 8
  store double %0, ptr %8, align 8
  store double %1, ptr %9, align 8
  store double %2, ptr %10, align 8
  store double %3, ptr %11, align 8
  store ptr %4, ptr %12, align 8
  store double %5, ptr %13, align 8
  %26 = load double, ptr %8, align 8
  %27 = call double @llvm.fabs.f64(double %26)
  %28 = load double, ptr %13, align 8
  %29 = fcmp ole double %27, %28
  br i1 %29, label %30, label %37

30:                                               ; preds = %6
  %31 = load double, ptr %9, align 8
  %32 = load double, ptr %10, align 8
  %33 = load double, ptr %11, align 8
  %34 = load ptr, ptr %12, align 8
  %35 = load double, ptr %13, align 8
  %36 = call noundef i32 @_Z6FactordddPA2_dd(double noundef %31, double noundef %32, double noundef %33, ptr noundef %34, double noundef %35)
  store i32 %36, ptr %7, align 4
  br label %229

37:                                               ; preds = %6
  %38 = load double, ptr %8, align 8
  %39 = load double, ptr %9, align 8
  %40 = fdiv double %39, %38
  store double %40, ptr %9, align 8
  %41 = load double, ptr %8, align 8
  %42 = load double, ptr %10, align 8
  %43 = fdiv double %42, %41
  store double %43, ptr %10, align 8
  %44 = load double, ptr %8, align 8
  %45 = load double, ptr %11, align 8
  %46 = fdiv double %45, %44
  store double %46, ptr %11, align 8
  %47 = load double, ptr %10, align 8
  %48 = load double, ptr %9, align 8
  %49 = load double, ptr %9, align 8
  %50 = fmul double %48, %49
  %51 = fneg double %50
  %52 = call double @llvm.fmuladd.f64(double 3.000000e+00, double %47, double %51)
  %53 = fneg double %52
  %54 = fdiv double %53, 9.000000e+00
  store double %54, ptr %14, align 8
  %55 = load double, ptr %9, align 8
  %56 = fmul double 9.000000e+00, %55
  %57 = load double, ptr %10, align 8
  %58 = load double, ptr %11, align 8
  %59 = fmul double 2.700000e+01, %58
  %60 = fneg double %59
  %61 = call double @llvm.fmuladd.f64(double %56, double %57, double %60)
  %62 = load double, ptr %9, align 8
  %63 = fmul double 2.000000e+00, %62
  %64 = load double, ptr %9, align 8
  %65 = fmul double %63, %64
  %66 = load double, ptr %9, align 8
  %67 = fneg double %65
  %68 = call double @llvm.fmuladd.f64(double %67, double %66, double %61)
  %69 = fneg double %68
  %70 = fdiv double %69, 5.400000e+01
  store double %70, ptr %15, align 8
  %71 = load double, ptr %15, align 8
  %72 = load double, ptr %15, align 8
  %73 = fmul double %71, %72
  store double %73, ptr %16, align 8
  %74 = load double, ptr %14, align 8
  %75 = load double, ptr %14, align 8
  %76 = fmul double %74, %75
  %77 = load double, ptr %14, align 8
  %78 = fmul double %76, %77
  store double %78, ptr %17, align 8
  %79 = load double, ptr %16, align 8
  %80 = load double, ptr %17, align 8
  %81 = fcmp olt double %79, %80
  br i1 %81, label %82, label %134

82:                                               ; preds = %37
  %83 = load double, ptr %14, align 8
  %84 = call double @sqrt(double noundef %83) #6
  store double %84, ptr %18, align 8
  %85 = load double, ptr %15, align 8
  %86 = load double, ptr %18, align 8
  %87 = load double, ptr %14, align 8
  %88 = fmul double %86, %87
  %89 = fdiv double %85, %88
  %90 = call double @acos(double noundef %89) #6
  store double %90, ptr %19, align 8
  %91 = load double, ptr %19, align 8
  %92 = fdiv double %91, 3.000000e+00
  %93 = call double @cos(double noundef %92) #6
  %94 = load double, ptr %18, align 8
  %95 = fmul double %93, %94
  store double %95, ptr %20, align 8
  %96 = load double, ptr %19, align 8
  %97 = fdiv double %96, 3.000000e+00
  %98 = call double @sin(double noundef %97) #6
  %99 = load double, ptr %18, align 8
  %100 = fmul double %98, %99
  %101 = fmul double %100, 0x3FFBB67AE8584CAA
  %102 = fdiv double %101, 2.000000e+00
  store double %102, ptr %21, align 8
  %103 = load ptr, ptr %12, align 8
  %104 = getelementptr inbounds [2 x double], ptr %103, i64 2
  %105 = getelementptr inbounds [2 x double], ptr %104, i64 0, i64 1
  store double 0.000000e+00, ptr %105, align 8
  %106 = load ptr, ptr %12, align 8
  %107 = getelementptr inbounds [2 x double], ptr %106, i64 1
  %108 = getelementptr inbounds [2 x double], ptr %107, i64 0, i64 1
  store double 0.000000e+00, ptr %108, align 8
  %109 = load ptr, ptr %12, align 8
  %110 = getelementptr inbounds [2 x double], ptr %109, i64 0
  %111 = getelementptr inbounds [2 x double], ptr %110, i64 0, i64 1
  store double 0.000000e+00, ptr %111, align 8
  %112 = load double, ptr %20, align 8
  %113 = fmul double -2.000000e+00, %112
  %114 = load ptr, ptr %12, align 8
  %115 = getelementptr inbounds [2 x double], ptr %114, i64 0
  %116 = getelementptr inbounds [2 x double], ptr %115, i64 0, i64 0
  store double %113, ptr %116, align 8
  %117 = load double, ptr %20, align 8
  %118 = fneg double %117
  %119 = load double, ptr %21, align 8
  %120 = fneg double %119
  %121 = call double @llvm.fmuladd.f64(double %118, double 5.000000e-01, double %120)
  %122 = fmul double -2.000000e+00, %121
  %123 = load ptr, ptr %12, align 8
  %124 = getelementptr inbounds [2 x double], ptr %123, i64 1
  %125 = getelementptr inbounds [2 x double], ptr %124, i64 0, i64 0
  store double %122, ptr %125, align 8
  %126 = load double, ptr %20, align 8
  %127 = fneg double %126
  %128 = load double, ptr %21, align 8
  %129 = call double @llvm.fmuladd.f64(double %127, double 5.000000e-01, double %128)
  %130 = fmul double -2.000000e+00, %129
  %131 = load ptr, ptr %12, align 8
  %132 = getelementptr inbounds [2 x double], ptr %131, i64 2
  %133 = getelementptr inbounds [2 x double], ptr %132, i64 0, i64 0
  store double %130, ptr %133, align 8
  br label %207

134:                                              ; preds = %37
  %135 = load double, ptr %16, align 8
  %136 = load double, ptr %17, align 8
  %137 = fsub double %135, %136
  %138 = call double @sqrt(double noundef %137) #6
  store double %138, ptr %24, align 8
  %139 = load double, ptr %15, align 8
  %140 = fneg double %139
  %141 = load double, ptr %24, align 8
  %142 = fadd double %140, %141
  store double %142, ptr %25, align 8
  %143 = load double, ptr %25, align 8
  %144 = fcmp olt double %143, 0.000000e+00
  br i1 %144, label %145, label %150

145:                                              ; preds = %134
  %146 = load double, ptr %25, align 8
  %147 = fneg double %146
  %148 = call double @pow(double noundef %147, double noundef 0x3FD5555555555555) #6
  %149 = fneg double %148
  store double %149, ptr %22, align 8
  br label %153

150:                                              ; preds = %134
  %151 = load double, ptr %25, align 8
  %152 = call double @pow(double noundef %151, double noundef 0x3FD5555555555555) #6
  store double %152, ptr %22, align 8
  br label %153

153:                                              ; preds = %150, %145
  %154 = load double, ptr %15, align 8
  %155 = fneg double %154
  %156 = load double, ptr %24, align 8
  %157 = fsub double %155, %156
  store double %157, ptr %25, align 8
  %158 = load double, ptr %25, align 8
  %159 = fcmp olt double %158, 0.000000e+00
  br i1 %159, label %160, label %165

160:                                              ; preds = %153
  %161 = load double, ptr %25, align 8
  %162 = fneg double %161
  %163 = call double @pow(double noundef %162, double noundef 0x3FD5555555555555) #6
  %164 = fneg double %163
  store double %164, ptr %23, align 8
  br label %168

165:                                              ; preds = %153
  %166 = load double, ptr %25, align 8
  %167 = call double @pow(double noundef %166, double noundef 0x3FD5555555555555) #6
  store double %167, ptr %23, align 8
  br label %168

168:                                              ; preds = %165, %160
  %169 = load ptr, ptr %12, align 8
  %170 = getelementptr inbounds [2 x double], ptr %169, i64 0
  %171 = getelementptr inbounds [2 x double], ptr %170, i64 0, i64 1
  store double 0.000000e+00, ptr %171, align 8
  %172 = load double, ptr %22, align 8
  %173 = load double, ptr %23, align 8
  %174 = fadd double %172, %173
  %175 = load ptr, ptr %12, align 8
  %176 = getelementptr inbounds [2 x double], ptr %175, i64 0
  %177 = getelementptr inbounds [2 x double], ptr %176, i64 0, i64 0
  store double %174, ptr %177, align 8
  %178 = load double, ptr %22, align 8
  %179 = fdiv double %178, 2.000000e+00
  store double %179, ptr %22, align 8
  %180 = load double, ptr %23, align 8
  %181 = fdiv double %180, 2.000000e+00
  store double %181, ptr %23, align 8
  %182 = load double, ptr %22, align 8
  %183 = fneg double %182
  %184 = load double, ptr %23, align 8
  %185 = fsub double %183, %184
  %186 = load ptr, ptr %12, align 8
  %187 = getelementptr inbounds [2 x double], ptr %186, i64 2
  %188 = getelementptr inbounds [2 x double], ptr %187, i64 0, i64 0
  store double %185, ptr %188, align 8
  %189 = load ptr, ptr %12, align 8
  %190 = getelementptr inbounds [2 x double], ptr %189, i64 1
  %191 = getelementptr inbounds [2 x double], ptr %190, i64 0, i64 0
  store double %185, ptr %191, align 8
  %192 = load double, ptr %22, align 8
  %193 = load double, ptr %23, align 8
  %194 = fsub double %192, %193
  %195 = fmul double 0x3FFBB67AE8584CAA, %194
  %196 = load ptr, ptr %12, align 8
  %197 = getelementptr inbounds [2 x double], ptr %196, i64 1
  %198 = getelementptr inbounds [2 x double], ptr %197, i64 0, i64 1
  store double %195, ptr %198, align 8
  %199 = load ptr, ptr %12, align 8
  %200 = getelementptr inbounds [2 x double], ptr %199, i64 1
  %201 = getelementptr inbounds [2 x double], ptr %200, i64 0, i64 1
  %202 = load double, ptr %201, align 8
  %203 = fneg double %202
  %204 = load ptr, ptr %12, align 8
  %205 = getelementptr inbounds [2 x double], ptr %204, i64 2
  %206 = getelementptr inbounds [2 x double], ptr %205, i64 0, i64 1
  store double %203, ptr %206, align 8
  br label %207

207:                                              ; preds = %168, %82
  %208 = load double, ptr %9, align 8
  %209 = fdiv double %208, 3.000000e+00
  %210 = load ptr, ptr %12, align 8
  %211 = getelementptr inbounds [2 x double], ptr %210, i64 0
  %212 = getelementptr inbounds [2 x double], ptr %211, i64 0, i64 0
  %213 = load double, ptr %212, align 8
  %214 = fsub double %213, %209
  store double %214, ptr %212, align 8
  %215 = load double, ptr %9, align 8
  %216 = fdiv double %215, 3.000000e+00
  %217 = load ptr, ptr %12, align 8
  %218 = getelementptr inbounds [2 x double], ptr %217, i64 1
  %219 = getelementptr inbounds [2 x double], ptr %218, i64 0, i64 0
  %220 = load double, ptr %219, align 8
  %221 = fsub double %220, %216
  store double %221, ptr %219, align 8
  %222 = load double, ptr %9, align 8
  %223 = fdiv double %222, 3.000000e+00
  %224 = load ptr, ptr %12, align 8
  %225 = getelementptr inbounds [2 x double], ptr %224, i64 2
  %226 = getelementptr inbounds [2 x double], ptr %225, i64 0, i64 0
  %227 = load double, ptr %226, align 8
  %228 = fsub double %227, %223
  store double %228, ptr %226, align 8
  store i32 3, ptr %7, align 4
  br label %229

229:                                              ; preds = %207, %30
  %230 = load i32, ptr %7, align 4
  ret i32 %230
}