; Function Attrs: mustprogress nofree nounwind willreturn memory(write) uwtable
define noundef range(i32 0, 4) i32 @_Z6FactorddddPA2_dd(double noundef %0, double noundef %1, double noundef %2, double noundef %3, ptr noundef writeonly captures(none) %4, double noundef %5) local_unnamed_addr #2 {
  %7 = tail call double @llvm.fabs.f64(double %0)
  %8 = fcmp ugt double %7, %5
  br i1 %8, label %45, label %9

9:                                                ; preds = %6
  %10 = tail call double @llvm.fabs.f64(double %1)
  %11 = fcmp ugt double %10, %5
  br i1 %11, label %19, label %12

12:                                               ; preds = %9
  %13 = tail call double @llvm.fabs.f64(double %2)
  %14 = fcmp ugt double %13, %5
  br i1 %14, label %15, label %_Z6FactordddPA2_dd.exit

15:                                               ; preds = %12
  %16 = fneg double %3
  %17 = fdiv double %16, %2
  store double %17, ptr %4, align 8
  %18 = getelementptr inbounds nuw i8, ptr %4, i64 8
  store double 0.000000e+00, ptr %18, align 8
  br label %_Z6FactordddPA2_dd.exit

19:                                               ; preds = %9
  %20 = fmul double %3, 4.000000e+00
  %21 = fneg double %1
  %22 = fmul double %20, %21
  %23 = tail call double @llvm.fmuladd.f64(double %2, double %2, double %22)
  %24 = fmul double %1, 2.000000e+00
  %25 = fdiv double %2, %24
  %26 = fcmp olt double %23, 0.000000e+00
  br i1 %26, label %27, label %36

27:                                               ; preds = %19
  %28 = fneg double %23
  %29 = tail call double @sqrt(double noundef %28) #12
  %30 = fdiv double %29, %24
  %31 = fneg double %25
  %32 = getelementptr inbounds nuw i8, ptr %4, i64 16
  store double %31, ptr %32, align 8
  store double %31, ptr %4, align 8
  %33 = fneg double %30
  %34 = getelementptr inbounds nuw i8, ptr %4, i64 8
  store double %33, ptr %34, align 8
  %35 = getelementptr inbounds nuw i8, ptr %4, i64 24
  store double %30, ptr %35, align 8
  br label %_Z6FactordddPA2_dd.exit

36:                                               ; preds = %19
  %37 = tail call double @sqrt(double noundef %23) #12
  %38 = fdiv double %37, %24
  %39 = getelementptr inbounds nuw i8, ptr %4, i64 16
  %40 = getelementptr inbounds nuw i8, ptr %4, i64 24
  store double 0.000000e+00, ptr %40, align 8
  %41 = getelementptr inbounds nuw i8, ptr %4, i64 8
  store double 0.000000e+00, ptr %41, align 8
  %42 = fneg double %25
  %43 = fsub double %42, %38
  store double %43, ptr %4, align 8
  %44 = fsub double %38, %25
  store double %44, ptr %39, align 8
  br label %_Z6FactordddPA2_dd.exit

45:                                               ; preds = %6
  %46 = fdiv double %1, %0
  %47 = fdiv double %2, %0
  %48 = fdiv double %3, %0
  %49 = fneg double %46
  %50 = fmul double %46, %49
  %51 = tail call double @llvm.fmuladd.f64(double %47, double 3.000000e+00, double %50)
  %52 = fdiv double %51, -9.000000e+00
  %53 = fmul double %46, 9.000000e+00
  %54 = fmul double %48, -2.700000e+01
  %55 = tail call double @llvm.fmuladd.f64(double %53, double %47, double %54)
  %56 = fmul double %46, 2.000000e+00
  %57 = fmul double %56, %49
  %58 = tail call double @llvm.fmuladd.f64(double %57, double %46, double %55)
  %59 = fdiv double %58, -5.400000e+01
  %60 = fmul double %59, %59
  %61 = fmul double %52, %52
  %62 = fmul double %52, %61
  %63 = fcmp olt double %60, %62
  br i1 %63, label %64, label %86

64:                                               ; preds = %45
  %65 = tail call double @sqrt(double noundef %52) #12
  %66 = fmul double %52, %65
  %67 = fdiv double %59, %66
  %68 = tail call double @acos(double noundef %67) #12
  %69 = fdiv double %68, 3.000000e+00
  %70 = tail call double @cos(double noundef %69) #12
  %71 = fmul double %65, %70
  %72 = tail call double @sin(double noundef %69) #12
  %73 = fmul double %65, %72
  %74 = fmul double %73, 0x3FFBB67AE8584CAA
  %75 = fmul double %74, 5.000000e-01
  %76 = getelementptr inbounds nuw i8, ptr %4, i64 40
  store double 0.000000e+00, ptr %76, align 8
  %77 = getelementptr inbounds nuw i8, ptr %4, i64 24
  store double 0.000000e+00, ptr %77, align 8
  %78 = getelementptr inbounds nuw i8, ptr %4, i64 8
  store double 0.000000e+00, ptr %78, align 8
  %79 = fmul double %71, -2.000000e+00
  %80 = fneg double %71
  %81 = fneg double %75
  %82 = tail call double @llvm.fmuladd.f64(double %80, double 5.000000e-01, double %81)
  %83 = fmul double %82, -2.000000e+00
  %84 = tail call double @llvm.fmuladd.f64(double %80, double 5.000000e-01, double %75)
  %85 = fmul double %84, -2.000000e+00
  br label %119

86:                                               ; preds = %45
  %87 = fsub double %60, %62
  %88 = tail call double @sqrt(double noundef %87) #12
  %89 = fneg double %59
  %90 = fsub double %88, %59
  %91 = fcmp olt double %90, 0.000000e+00
  br i1 %91, label %92, label %96

92:                                               ; preds = %86
  %93 = fneg double %90
  %94 = tail call double @pow(double noundef %93, double noundef 0x3FD5555555555555) #12
  %95 = fneg double %94
  br label %98

96:                                               ; preds = %86
  %97 = tail call double @pow(double noundef %90, double noundef 0x3FD5555555555555) #12
  br label %98

98:                                               ; preds = %96, %92
  %.082 = phi double [ %95, %92 ], [ %97, %96 ]
  %99 = fsub double %89, %88
  %100 = fcmp olt double %99, 0.000000e+00
  br i1 %100, label %101, label %105

101:                                              ; preds = %98
  %102 = fneg double %99
  %103 = tail call double @pow(double noundef %102, double noundef 0x3FD5555555555555) #12
  %104 = fneg double %103
  br label %107

105:                                              ; preds = %98
  %106 = tail call double @pow(double noundef %99, double noundef 0x3FD5555555555555) #12
  br label %107

107:                                              ; preds = %105, %101
  %.081 = phi double [ %104, %101 ], [ %106, %105 ]
  %108 = getelementptr inbounds nuw i8, ptr %4, i64 8
  store double 0.000000e+00, ptr %108, align 8
  %109 = fadd double %.082, %.081
  %110 = fmul double %.082, 5.000000e-01
  %111 = fmul double %.081, 5.000000e-01
  %112 = fneg double %110
  %113 = fsub double %112, %111
  %114 = fsub double %110, %111
  %115 = fmul double %114, 0x3FFBB67AE8584CAA
  %116 = getelementptr inbounds nuw i8, ptr %4, i64 24
  store double %115, ptr %116, align 8
  %117 = fneg double %115
  %118 = getelementptr inbounds nuw i8, ptr %4, i64 40
  store double %117, ptr %118, align 8
  br label %119

119:                                              ; preds = %107, %64
  %120 = phi double [ %113, %107 ], [ %85, %64 ]
  %121 = phi double [ %113, %107 ], [ %83, %64 ]
  %122 = phi double [ %109, %107 ], [ %79, %64 ]
  %123 = fdiv double %46, 3.000000e+00
  %124 = fsub double %122, %123
  store double %124, ptr %4, align 8
  %125 = getelementptr inbounds nuw i8, ptr %4, i64 16
  %126 = fsub double %121, %123
  store double %126, ptr %125, align 8
  %127 = getelementptr inbounds nuw i8, ptr %4, i64 32
  %128 = fsub double %120, %123
  store double %128, ptr %127, align 8
  br label %_Z6FactordddPA2_dd.exit

_Z6FactordddPA2_dd.exit:                          ; preds = %36, %27, %15, %12, %119
  %.0 = phi i32 [ 3, %119 ], [ 2, %36 ], [ 2, %27 ], [ 1, %15 ], [ 0, %12 ]
  ret i32 %.0
}